target datalayout = "e-m:e-p270:32:32-p271:32:32-p272:64:64-i64:64-i128:128-f80:128-n8:16:32:64-S128"
target triple = "x86_64-unknown-linux-gnu"

%struct.b2JointDef = type <{ i32, [4 x i8], %struct.b2JointUserData, ptr, ptr, i8, [7 x i8] }>
%struct.b2JointUserData = type { i64 }

; Function Attrs: mustprogress uwtable
define noundef ptr @_ZN7b2Joint6CreateEPK10b2JointDefP16b2BlockAllocator(ptr noundef %def, ptr noundef %allocator) #0 align 2 {
entry:
  %def.addr = alloca ptr, align 8
  %allocator.addr = alloca ptr, align 8
  %joint = alloca ptr, align 8
  %mem = alloca ptr, align 8
  %mem2 = alloca ptr, align 8
  %mem5 = alloca ptr, align 8
  %mem8 = alloca ptr, align 8
  %mem11 = alloca ptr, align 8
  %mem14 = alloca ptr, align 8
  %mem17 = alloca ptr, align 8
  %mem20 = alloca ptr, align 8
  %mem23 = alloca ptr, align 8
  %mem26 = alloca ptr, align 8
  store ptr %def, ptr %def.addr, align 8
  store ptr %allocator, ptr %allocator.addr, align 8
  store ptr null, ptr %joint, align 8
  %0 = load ptr, ptr %def.addr, align 8
  %type = getelementptr inbounds %struct.b2JointDef, ptr %0, i32 0, i32 0
  %1 = load i32, ptr %type, align 8
  switch i32 %1, label %sw.default [
    i32 3, label %sw.bb
    i32 5, label %sw.bb1
    i32 2, label %sw.bb4
    i32 1, label %sw.bb7
    i32 4, label %sw.bb10
    i32 6, label %sw.bb13
    i32 7, label %sw.bb16
    i32 8, label %sw.bb19
    i32 9, label %sw.bb22
    i32 10, label %sw.bb25
  ]

sw.bb:                                            ; preds = %entry
  %2 = load ptr, ptr %allocator.addr, align 8
  %call = call noundef ptr @_ZN16b2BlockAllocator8AllocateEi(ptr noundef nonnull align 8 dereferenceable(128) %2, i32 noundef 264)
  store ptr %call, ptr %mem, align 8
  %3 = load ptr, ptr %mem, align 8
  %4 = load ptr, ptr %def.addr, align 8
  call void @_ZN15b2DistanceJointC1EPK18b2DistanceJointDef(ptr noundef nonnull align 8 dereferenceable(260) %3, ptr noundef %4)
  store ptr %3, ptr %joint, align 8
  br label %sw.epilog

sw.bb1:                                           ; preds = %entry
  %5 = load ptr, ptr %allocator.addr, align 8
  %call3 = call noundef ptr @_ZN16b2BlockAllocator8AllocateEi(ptr noundef nonnull align 8 dereferenceable(128) %5, i32 noundef 232)
  store ptr %call3, ptr %mem2, align 8
  %6 = load ptr, ptr %mem2, align 8
  %7 = load ptr, ptr %def.addr, align 8
  call void @_ZN12b2MouseJointC1EPK15b2MouseJointDef(ptr noundef nonnull align 8 dereferenceable(228) %6, ptr noundef %7)
  store ptr %6, ptr %joint, align 8
  br label %sw.epilog

sw.bb4:                                           ; preds = %entry
  %8 = load ptr, ptr %allocator.addr, align 8
  %call6 = call noundef ptr @_ZN16b2BlockAllocator8AllocateEi(ptr noundef nonnull align 8 dereferenceable(128) %8, i32 noundef 304)
  store ptr %call6, ptr %mem5, align 8
  %9 = load ptr, ptr %mem5, align 8
  %10 = load ptr, ptr %def.addr, align 8
  call void @_ZN16b2PrismaticJointC1EPK19b2PrismaticJointDef(ptr noundef nonnull align 8 dereferenceable(300) %9, ptr noundef %10)
  store ptr %9, ptr %joint, align 8
  br label %sw.epilog

sw.bb7:                                           ; preds = %entry
  %11 = load ptr, ptr %allocator.addr, align 8
  %call9 = call noundef ptr @_ZN16b2BlockAllocator8AllocateEi(ptr noundef nonnull align 8 dereferenceable(128) %11, i32 noundef 272)
  store ptr %call9, ptr %mem8, align 8
  %12 = load ptr, ptr %mem8, align 8
  %13 = load ptr, ptr %def.addr, align 8
  call void @_ZN15b2RevoluteJointC1EPK18b2RevoluteJointDef(ptr noundef nonnull align 8 dereferenceable(272) %12, ptr noundef %13)
  store ptr %12, ptr %joint, align 8
  br label %sw.epilog

sw.bb10:                                          ; preds = %entry
  %14 = load ptr, ptr %allocator.addr, align 8
  %call12 = call noundef ptr @_ZN16b2BlockAllocator8AllocateEi(ptr noundef nonnull align 8 dereferenceable(128) %14, i32 noundef 256)
  store ptr %call12, ptr %mem11, align 8
  %15 = load ptr, ptr %mem11, align 8
  %16 = load ptr, ptr %def.addr, align 8
  call void @_ZN13b2PulleyJointC1EPK16b2PulleyJointDef(ptr noundef nonnull align 8 dereferenceable(256) %15, ptr noundef %16)
  store ptr %15, ptr %joint, align 8
  br label %sw.epilog

sw.bb13:                                          ; preds = %entry
  %17 = load ptr, ptr %allocator.addr, align 8
  %call15 = call noundef ptr @_ZN16b2BlockAllocator8AllocateEi(ptr noundef nonnull align 8 dereferenceable(128) %17, i32 noundef 360)
  store ptr %call15, ptr %mem14, align 8
  %18 = load ptr, ptr %mem14, align 8
  %19 = load ptr, ptr %def.addr, align 8
  call void @_ZN11b2GearJointC1EPK14b2GearJointDef(ptr noundef nonnull align 8 dereferenceable(356) %18, ptr noundef %19)
  store ptr %18, ptr %joint, align 8
  br label %sw.epilog

sw.bb16:                                          ; preds = %entry
  %20 = load ptr, ptr %allocator.addr, align 8
  %call18 = call noundef ptr @_ZN16b2BlockAllocator8AllocateEi(ptr noundef nonnull align 8 dereferenceable(128) %20, i32 noundef 312)
  store ptr %call18, ptr %mem17, align 8
  %21 = load ptr, ptr %mem17, align 8
  %22 = load ptr, ptr %def.addr, align 8
  call void @_ZN12b2WheelJointC1EPK15b2WheelJointDef(ptr noundef nonnull align 8 dereferenceable(308) %21, ptr noundef %22)
  store ptr %21, ptr %joint, align 8
  br label %sw.epilog

sw.bb19:                                          ; preds = %entry
  %23 = load ptr, ptr %allocator.addr, align 8
  %call21 = call noundef ptr @_ZN16b2BlockAllocator8AllocateEi(ptr noundef nonnull align 8 dereferenceable(128) %23, i32 noundef 272)
  store ptr %call21, ptr %mem20, align 8
  %24 = load ptr, ptr %mem20, align 8
  %25 = load ptr, ptr %def.addr, align 8
  call void @_ZN11b2WeldJointC1EPK14b2WeldJointDef(ptr noundef nonnull align 8 dereferenceable(268) %24, ptr noundef %25)
  store ptr %24, ptr %joint, align 8
  br label %sw.epilog

sw.bb22:                                          ; preds = %entry
  %26 = load ptr, ptr %allocator.addr, align 8
  %call24 = call noundef ptr @_ZN16b2BlockAllocator8AllocateEi(ptr noundef nonnull align 8 dereferenceable(128) %26, i32 noundef 240)
  store ptr %call24, ptr %mem23, align 8
  %27 = load ptr, ptr %mem23, align 8
  %28 = load ptr, ptr %def.addr, align 8
  call void @_ZN15b2FrictionJointC1EPK18b2FrictionJointDef(ptr noundef nonnull align 8 dereferenceable(240) %27, ptr noundef %28)
  store ptr %27, ptr %joint, align 8
  br label %sw.epilog

sw.bb25:                                          ; preds = %entry
  %29 = load ptr, ptr %allocator.addr, align 8
  %call27 = call noundef ptr @_ZN16b2BlockAllocator8AllocateEi(ptr noundef nonnull align 8 dereferenceable(128) %29, i32 noundef 256)
  store ptr %call27, ptr %mem26, align 8
  %30 = load ptr, ptr %mem26, align 8
  %31 = load ptr, ptr %def.addr, align 8
  call void @_ZN12b2MotorJointC1EPK15b2MotorJointDef(ptr noundef nonnull align 8 dereferenceable(252) %30, ptr noundef %31)
  store ptr %30, ptr %joint, align 8
  br label %sw.epilog

sw.default:                                       ; preds = %entry
  br label %sw.epilog

sw.epilog:                                        ; preds = %sw.default, %sw.bb25, %sw.bb22, %sw.bb19, %sw.bb16, %sw.bb13, %sw.bb10, %sw.bb7, %sw.bb4, %sw.bb1, %sw.bb
  %32 = load ptr, ptr %joint, align 8
  ret ptr %32
}