; Function Attrs: mustprogress uwtable
define noundef ptr @_ZN7b2Joint6CreateEPK10b2JointDefP16b2BlockAllocator(ptr noundef %def, ptr noundef %allocator) local_unnamed_addr #1 align 2 {
entry:
  %0 = load i32, ptr %def, align 8
  switch i32 %0, label %sw.epilog [
    i32 3, label %sw.bb
    i32 5, label %sw.bb1
    i32 2, label %sw.bb4
    i32 1, label %sw.bb7
    i32 4, label %sw.bb10
    i32 6, label %sw.bb13
    i32 7, label %sw.bb16
    i32 8, label %sw.bb19
    i32 9, label %sw.bb22
    i32 10, label %sw.bb25
  ]

sw.bb:                                            ; preds = %entry
  %call = tail call noundef ptr @_ZN16b2BlockAllocator8AllocateEi(ptr noundef nonnull align 8 dereferenceable(128) %allocator, i32 noundef 264)
  tail call void @_ZN15b2DistanceJointC1EPK18b2DistanceJointDef(ptr noundef nonnull align 8 dereferenceable(260) %call, ptr noundef nonnull %def)
  br label %sw.epilog

sw.bb1:                                           ; preds = %entry
  %call3 = tail call noundef ptr @_ZN16b2BlockAllocator8AllocateEi(ptr noundef nonnull align 8 dereferenceable(128) %allocator, i32 noundef 232)
  tail call void @_ZN12b2MouseJointC1EPK15b2MouseJointDef(ptr noundef nonnull align 8 dereferenceable(228) %call3, ptr noundef nonnull %def)
  br label %sw.epilog

sw.bb4:                                           ; preds = %entry
  %call6 = tail call noundef ptr @_ZN16b2BlockAllocator8AllocateEi(ptr noundef nonnull align 8 dereferenceable(128) %allocator, i32 noundef 304)
  tail call void @_ZN16b2PrismaticJointC1EPK19b2PrismaticJointDef(ptr noundef nonnull align 8 dereferenceable(300) %call6, ptr noundef nonnull %def)
  br label %sw.epilog

sw.bb7:                                           ; preds = %entry
  %call9 = tail call noundef ptr @_ZN16b2BlockAllocator8AllocateEi(ptr noundef nonnull align 8 dereferenceable(128) %allocator, i32 noundef 272)
  tail call void @_ZN15b2RevoluteJointC1EPK18b2RevoluteJointDef(ptr noundef nonnull align 8 dereferenceable(272) %call9, ptr noundef nonnull %def)
  br label %sw.epilog

sw.bb10:                                          ; preds = %entry
  %call12 = tail call noundef ptr @_ZN16b2BlockAllocator8AllocateEi(ptr noundef nonnull align 8 dereferenceable(128) %allocator, i32 noundef 256)
  tail call void @_ZN13b2PulleyJointC1EPK16b2PulleyJointDef(ptr noundef nonnull align 8 dereferenceable(256) %call12, ptr noundef nonnull %def)
  br label %sw.epilog

sw.bb13:                                          ; preds = %entry
  %call15 = tail call noundef ptr @_ZN16b2BlockAllocator8AllocateEi(ptr noundef nonnull align 8 dereferenceable(128) %allocator, i32 noundef 360)
  tail call void @_ZN11b2GearJointC1EPK14b2GearJointDef(ptr noundef nonnull align 8 dereferenceable(356) %call15, ptr noundef nonnull %def)
  br label %sw.epilog

sw.bb16:                                          ; preds = %entry
  %call18 = tail call noundef ptr @_ZN16b2BlockAllocator8AllocateEi(ptr noundef nonnull align 8 dereferenceable(128) %allocator, i32 noundef 312)
  tail call void @_ZN12b2WheelJointC1EPK15b2WheelJointDef(ptr noundef nonnull align 8 dereferenceable(308) %call18, ptr noundef nonnull %def)
  br label %sw.epilog

sw.bb19:                                          ; preds = %entry
  %call21 = tail call noundef ptr @_ZN16b2BlockAllocator8AllocateEi(ptr noundef nonnull align 8 dereferenceable(128) %allocator, i32 noundef 272)
  tail call void @_ZN11b2WeldJointC1EPK14b2WeldJointDef(ptr noundef nonnull align 8 dereferenceable(268) %call21, ptr noundef nonnull %def)
  br label %sw.epilog

sw.bb22:                                          ; preds = %entry
  %call24 = tail call noundef ptr @_ZN16b2BlockAllocator8AllocateEi(ptr noundef nonnull align 8 dereferenceable(128) %allocator, i32 noundef 240)
  tail call void @_ZN15b2FrictionJointC1EPK18b2FrictionJointDef(ptr noundef nonnull align 8 dereferenceable(240) %call24, ptr noundef nonnull %def)
  br label %sw.epilog

sw.bb25:                                          ; preds = %entry
  %call27 = tail call noundef ptr @_ZN16b2BlockAllocator8AllocateEi(ptr noundef nonnull align 8 dereferenceable(128) %allocator, i32 noundef 256)
  tail call void @_ZN12b2MotorJointC1EPK15b2MotorJointDef(ptr noundef nonnull align 8 dereferenceable(252) %call27, ptr noundef nonnull %def)
  br label %sw.epilog

sw.epilog:                                        ; preds = %entry, %sw.bb25, %sw.bb22, %sw.bb19, %sw.bb16, %sw.bb13, %sw.bb10, %sw.bb7, %sw.bb4, %sw.bb1, %sw.bb
  %joint.0 = phi ptr [ null, %entry ], [ %call27, %sw.bb25 ], [ %call24, %sw.bb22 ], [ %call21, %sw.bb19 ], [ %call18, %sw.bb16 ], [ %call15, %sw.bb13 ], [ %call12, %sw.bb10 ], [ %call9, %sw.bb7 ], [ %call6, %sw.bb4 ], [ %call3, %sw.bb1 ], [ %call, %sw.bb ]
  ret ptr %joint.0
}